target datalayout = "e-m:e-p270:32:32-p271:32:32-p272:64:64-i64:64-i128:128-f80:128-n8:16:32:64-S128"
target triple = "x86_64-pc-linux-gnu"

@UseLargePages = external global i8, align 1

; Function Attrs: mustprogress nounwind uwtable
define hidden noundef i64 @_ZN11GCArguments22compute_heap_alignmentEv() #1 align 2 {
  %1 = alloca i64, align 8
  %2 = call noundef i64 @_ZN9CardTable27ct_max_alignment_constraintEv()
  store i64 %2, ptr %1, align 8
  %3 = load i8, ptr @UseLargePages, align 1
  %4 = trunc i8 %3 to i1
  br i1 %4, label %5, label %9

5:                                                ; preds = %0
  %6 = call noundef i64 @_ZN2os15large_page_sizeEv()
  %7 = load i64, ptr %1, align 8
  %8 = call noundef i64 @_Z3lcmmm(i64 noundef %6, i64 noundef %7)
  store i64 %8, ptr %1, align 8
  br label %9

9:                                                ; preds = %5, %0
  %10 = load i64, ptr %1, align 8
  ret i64 %10
}