; Function Attrs: mustprogress nounwind uwtable
define hidden noundef i64 @_ZN11GCArguments22compute_heap_alignmentEv() local_unnamed_addr #0 align 2 {
  %1 = tail call noundef i64 @_ZN9CardTable27ct_max_alignment_constraintEv() #6
  %2 = load i8, ptr @UseLargePages, align 1
  %3 = trunc i8 %2 to i1
  br i1 %3, label %4, label %7

4:                                                ; preds = %0
  %5 = tail call noundef i64 @_ZN2os15large_page_sizeEv() #6
  %6 = tail call noundef i64 @_Z3lcmmm(i64 noundef %5, i64 noundef %1) #6
  br label %7

7:                                                ; preds = %4, %0
  %.0 = phi i64 [ %6, %4 ], [ %1, %0 ]
  ret i64 %.0
}